; Function Attrs: nounwind uwtable
define internal range(i32 0, 23) i32 @arena_i_muzzy_decay_ms_ctl(ptr noundef %0, ptr noundef readonly captures(none) %1, i64 %2, ptr noundef writeonly captures(address_is_null) %3, ptr noundef captures(address_is_null) %4, ptr noundef readonly captures(address_is_null) %5, i64 noundef %6) #0 {
  %8 = alloca i64, align 8
  %9 = getelementptr i8, ptr %1, i64 8
  %.val = load i64, ptr %9, align 8, !tbaa !4
  %10 = icmp ugt i64 %.val, 4294967295
  br i1 %10, label %arena_i_decay_ms_ctl_impl.exit, label %11

11:                                               ; preds = %7
  %12 = getelementptr inbounds nuw [0 x %struct.atomic_p_t], ptr @je_arenas, i64 0, i64 %.val
  %13 = load atomic i64, ptr %12 acquire, align 8
  %.0.i.i.i = inttoptr i64 %13 to ptr
  %14 = icmp eq i64 %13, 0
  br i1 %14, label %arena_i_decay_ms_ctl_impl.exit, label %15, !prof !222

15:                                               ; preds = %11
  %16 = icmp ne ptr %3, null
  %17 = icmp ne ptr %4, null
  %or.cond.i = and i1 %16, %17
  br i1 %or.cond.i, label %18, label %22

18:                                               ; preds = %15
  call void @llvm.lifetime.start.p0(i64 8, ptr nonnull %8)
  %19 = tail call i64 @je_arena_decay_ms_get(ptr noundef nonnull %.0.i.i.i, i32 noundef 2) #15
  store i64 %19, ptr %8, align 8, !tbaa !4
  %20 = load i64, ptr %4, align 8, !tbaa !4
  %.not.i = icmp eq i64 %20, 8
  br i1 %.not.i, label %.thread.i, label %21

.thread.i:                                        ; preds = %18
  store i64 %19, ptr %3, align 8, !tbaa !4
  call void @llvm.lifetime.end.p0(i64 8, ptr nonnull %8)
  br label %22

21:                                               ; preds = %18
  %spec.select.i = tail call i64 @llvm.umin.i64(i64 %20, i64 8)
  call void @llvm.memcpy.p0.p0.i64(ptr nonnull align 1 %3, ptr nonnull align 8 %8, i64 %spec.select.i, i1 false)
  store i64 %spec.select.i, ptr %4, align 8, !tbaa !4
  call void @llvm.lifetime.end.p0(i64 8, ptr nonnull %8)
  br label %arena_i_decay_ms_ctl_impl.exit

22:                                               ; preds = %.thread.i, %15
  %.not40.i = icmp eq ptr %5, null
  br i1 %.not40.i, label %27, label %23

23:                                               ; preds = %22
  %.not41.i = icmp eq i64 %6, 8
  br i1 %.not41.i, label %24, label %arena_i_decay_ms_ctl_impl.exit

24:                                               ; preds = %23
  %25 = load i64, ptr %5, align 8, !tbaa !4
  %26 = tail call zeroext i1 @je_arena_decay_ms_set(ptr noundef %0, ptr noundef nonnull %.0.i.i.i, i32 noundef 2, i64 noundef %25) #15
  br i1 %26, label %arena_i_decay_ms_ctl_impl.exit, label %27

27:                                               ; preds = %24, %22
  br label %arena_i_decay_ms_ctl_impl.exit

arena_i_decay_ms_ctl_impl.exit:                   ; preds = %7, %11, %21, %23, %24, %27
  %.033.i = phi i32 [ 22, %21 ], [ 0, %27 ], [ 14, %7 ], [ 22, %23 ], [ 14, %24 ], [ 14, %11 ]
  ret i32 %.033.i
}